target datalayout = "e-m:e-p270:32:32-p271:32:32-p272:64:64-i64:64-i128:128-f80:128-n8:16:32:64-S128"
target triple = "x86_64-pc-linux-gnu"

%struct._YR_COMPILER = type { i32, i32, i32, i32, i32, [1 x %struct.__jmp_buf_tag], ptr, ptr, ptr, ptr, ptr, ptr, ptr, ptr, ptr, ptr, ptr, ptr, ptr, ptr, i32, i32, [4 x ptr], [4 x ptr], i32, i32, i32, [16 x ptr], i32, [16 x ptr], i32, [256 x i8], [1024 x i8], ptr, i16, [1024 x i8], ptr, %struct.rq, %struct.cs, ptr, i32 }
%struct.__jmp_buf_tag = type { [8 x i64], i32, %struct.__sigset_t }
%struct.__sigset_t = type { [16 x i64] }
%struct.rq = type { ptr, ptr }
%struct.cs = type { ptr, ptr }

@.str = private unnamed_addr constant [18 x i8] c"not enough memory\00", align 1
@.str.1 = private unnamed_addr constant [26 x i8] c"duplicate identifier \22%s\22\00", align 1
@.str.2 = private unnamed_addr constant [33 x i8] c"duplicate string identifier \22%s\22\00", align 1
@.str.3 = private unnamed_addr constant [30 x i8] c"duplicate tag identifier \22%s\22\00", align 1
@.str.4 = private unnamed_addr constant [35 x i8] c"duplicate metadata identifier \22%s\22\00", align 1
@.str.5 = private unnamed_addr constant [31 x i8] c"duplicate loop identifier \22%s\22\00", align 1
@.str.6 = private unnamed_addr constant [22 x i8] c"undefined string \22%s\22\00", align 1
@.str.7 = private unnamed_addr constant [26 x i8] c"undefined identifier \22%s\22\00", align 1
@.str.8 = private unnamed_addr constant [25 x i8] c"unreferenced string \22%s\22\00", align 1
@.str.9 = private unnamed_addr constant [24 x i8] c"\22%s\22 is not a structure\00", align 1
@.str.10 = private unnamed_addr constant [21 x i8] c"\22%s\22 is not an array\00", align 1
@.str.11 = private unnamed_addr constant [24 x i8] c"invalid field name \22%s\22\00", align 1
@.str.12 = private unnamed_addr constant [30 x i8] c"wrong use of anonymous string\00", align 1
@.str.13 = private unnamed_addr constant [27 x i8] c"include circular reference\00", align 1
@.str.14 = private unnamed_addr constant [34 x i8] c"too many levels of included rules\00", align 1
@.str.15 = private unnamed_addr constant [28 x i8] c"loop nesting limit exceeded\00", align 1
@.str.16 = private unnamed_addr constant [57 x i8] c"'for <quantifier> of <string set>' loops can't be nested\00", align 1
@.str.17 = private unnamed_addr constant [20 x i8] c"unknown module \22%s\22\00", align 1
@.str.18 = private unnamed_addr constant [3 x i8] c"%s\00", align 1
@.str.19 = private unnamed_addr constant [21 x i8] c"internal fatal error\00", align 1

; Function Attrs: nounwind uwtable
define ptr @yr_compiler_get_error_message(ptr noundef %0, ptr noundef %1, i32 noundef %2) #0 {
  %4 = alloca ptr, align 8
  %5 = alloca ptr, align 8
  %6 = alloca i32, align 4
  store ptr %0, ptr %4, align 8
  store ptr %1, ptr %5, align 8
  store i32 %2, ptr %6, align 4
  %7 = load ptr, ptr %4, align 8
  %8 = getelementptr inbounds %struct._YR_COMPILER, ptr %7, i32 0, i32 2
  %9 = load i32, ptr %8, align 8
  switch i32 %9, label %149 [
    i32 1, label %10
    i32 14, label %15
    i32 17, label %23
    i32 15, label %31
    i32 16, label %39
    i32 13, label %47
    i32 19, label %55
    i32 20, label %63
    i32 18, label %71
    i32 35, label %79
    i32 36, label %87
    i32 33, label %95
    i32 21, label %103
    i32 22, label %108
    i32 23, label %113
    i32 12, label %118
    i32 32, label %123
    i32 34, label %128
    i32 10, label %136
    i32 9, label %136
    i32 11, label %136
    i32 24, label %136
    i32 40, label %136
    i32 31, label %144
  ]

10:                                               ; preds = %3
  %11 = load ptr, ptr %5, align 8
  %12 = load i32, ptr %6, align 4
  %13 = sext i32 %12 to i64
  %14 = call i32 (ptr, i64, ptr, ...) @snprintf(ptr noundef %11, i64 noundef %13, ptr noundef @.str) #5
  br label %149

15:                                               ; preds = %3
  %16 = load ptr, ptr %5, align 8
  %17 = load i32, ptr %6, align 4
  %18 = sext i32 %17 to i64
  %19 = load ptr, ptr %4, align 8
  %20 = getelementptr inbounds %struct._YR_COMPILER, ptr %19, i32 0, i32 31
  %21 = getelementptr inbounds [256 x i8], ptr %20, i64 0, i64 0
  %22 = call i32 (ptr, i64, ptr, ...) @snprintf(ptr noundef %16, i64 noundef %18, ptr noundef @.str.1, ptr noundef %21) #5
  br label %149

23:                                               ; preds = %3
  %24 = load ptr, ptr %5, align 8
  %25 = load i32, ptr %6, align 4
  %26 = sext i32 %25 to i64
  %27 = load ptr, ptr %4, align 8
  %28 = getelementptr inbounds %struct._YR_COMPILER, ptr %27, i32 0, i32 31
  %29 = getelementptr inbounds [256 x i8], ptr %28, i64 0, i64 0
  %30 = call i32 (ptr, i64, ptr, ...) @snprintf(ptr noundef %24, i64 noundef %26, ptr noundef @.str.2, ptr noundef %29) #5
  br label %149

31:                                               ; preds = %3
  %32 = load ptr, ptr %5, align 8
  %33 = load i32, ptr %6, align 4
  %34 = sext i32 %33 to i64
  %35 = load ptr, ptr %4, align 8
  %36 = getelementptr inbounds %struct._YR_COMPILER, ptr %35, i32 0, i32 31
  %37 = getelementptr inbounds [256 x i8], ptr %36, i64 0, i64 0
  %38 = call i32 (ptr, i64, ptr, ...) @snprintf(ptr noundef %32, i64 noundef %34, ptr noundef @.str.3, ptr noundef %37) #5
  br label %149

39:                                               ; preds = %3
  %40 = load ptr, ptr %5, align 8
  %41 = load i32, ptr %6, align 4
  %42 = sext i32 %41 to i64
  %43 = load ptr, ptr %4, align 8
  %44 = getelementptr inbounds %struct._YR_COMPILER, ptr %43, i32 0, i32 31
  %45 = getelementptr inbounds [256 x i8], ptr %44, i64 0, i64 0
  %46 = call i32 (ptr, i64, ptr, ...) @snprintf(ptr noundef %40, i64 noundef %42, ptr noundef @.str.4, ptr noundef %45) #5
  br label %149

47:                                               ; preds = %3
  %48 = load ptr, ptr %5, align 8
  %49 = load i32, ptr %6, align 4
  %50 = sext i32 %49 to i64
  %51 = load ptr, ptr %4, align 8
  %52 = getelementptr inbounds %struct._YR_COMPILER, ptr %51, i32 0, i32 31
  %53 = getelementptr inbounds [256 x i8], ptr %52, i64 0, i64 0
  %54 = call i32 (ptr, i64, ptr, ...) @snprintf(ptr noundef %48, i64 noundef %50, ptr noundef @.str.5, ptr noundef %53) #5
  br label %149

55:                                               ; preds = %3
  %56 = load ptr, ptr %5, align 8
  %57 = load i32, ptr %6, align 4
  %58 = sext i32 %57 to i64
  %59 = load ptr, ptr %4, align 8
  %60 = getelementptr inbounds %struct._YR_COMPILER, ptr %59, i32 0, i32 31
  %61 = getelementptr inbounds [256 x i8], ptr %60, i64 0, i64 0
  %62 = call i32 (ptr, i64, ptr, ...) @snprintf(ptr noundef %56, i64 noundef %58, ptr noundef @.str.6, ptr noundef %61) #5
  br label %149

63:                                               ; preds = %3
  %64 = load ptr, ptr %5, align 8
  %65 = load i32, ptr %6, align 4
  %66 = sext i32 %65 to i64
  %67 = load ptr, ptr %4, align 8
  %68 = getelementptr inbounds %struct._YR_COMPILER, ptr %67, i32 0, i32 31
  %69 = getelementptr inbounds [256 x i8], ptr %68, i64 0, i64 0
  %70 = call i32 (ptr, i64, ptr, ...) @snprintf(ptr noundef %64, i64 noundef %66, ptr noundef @.str.7, ptr noundef %69) #5
  br label %149

71:                                               ; preds = %3
  %72 = load ptr, ptr %5, align 8
  %73 = load i32, ptr %6, align 4
  %74 = sext i32 %73 to i64
  %75 = load ptr, ptr %4, align 8
  %76 = getelementptr inbounds %struct._YR_COMPILER, ptr %75, i32 0, i32 31
  %77 = getelementptr inbounds [256 x i8], ptr %76, i64 0, i64 0
  %78 = call i32 (ptr, i64, ptr, ...) @snprintf(ptr noundef %72, i64 noundef %74, ptr noundef @.str.8, ptr noundef %77) #5
  br label %149

79:                                               ; preds = %3
  %80 = load ptr, ptr %5, align 8
  %81 = load i32, ptr %6, align 4
  %82 = sext i32 %81 to i64
  %83 = load ptr, ptr %4, align 8
  %84 = getelementptr inbounds %struct._YR_COMPILER, ptr %83, i32 0, i32 31
  %85 = getelementptr inbounds [256 x i8], ptr %84, i64 0, i64 0
  %86 = call i32 (ptr, i64, ptr, ...) @snprintf(ptr noundef %80, i64 noundef %82, ptr noundef @.str.9, ptr noundef %85) #5
  br label %149

87:                                               ; preds = %3
  %88 = load ptr, ptr %5, align 8
  %89 = load i32, ptr %6, align 4
  %90 = sext i32 %89 to i64
  %91 = load ptr, ptr %4, align 8
  %92 = getelementptr inbounds %struct._YR_COMPILER, ptr %91, i32 0, i32 31
  %93 = getelementptr inbounds [256 x i8], ptr %92, i64 0, i64 0
  %94 = call i32 (ptr, i64, ptr, ...) @snprintf(ptr noundef %88, i64 noundef %90, ptr noundef @.str.10, ptr noundef %93) #5
  br label %149

95:                                               ; preds = %3
  %96 = load ptr, ptr %5, align 8
  %97 = load i32, ptr %6, align 4
  %98 = sext i32 %97 to i64
  %99 = load ptr, ptr %4, align 8
  %100 = getelementptr inbounds %struct._YR_COMPILER, ptr %99, i32 0, i32 31
  %101 = getelementptr inbounds [256 x i8], ptr %100, i64 0, i64 0
  %102 = call i32 (ptr, i64, ptr, ...) @snprintf(ptr noundef %96, i64 noundef %98, ptr noundef @.str.11, ptr noundef %101) #5
  br label %149

103:                                              ; preds = %3
  %104 = load ptr, ptr %5, align 8
  %105 = load i32, ptr %6, align 4
  %106 = sext i32 %105 to i64
  %107 = call i32 (ptr, i64, ptr, ...) @snprintf(ptr noundef %104, i64 noundef %106, ptr noundef @.str.12) #5
  br label %149

108:                                              ; preds = %3
  %109 = load ptr, ptr %5, align 8
  %110 = load i32, ptr %6, align 4
  %111 = sext i32 %110 to i64
  %112 = call i32 (ptr, i64, ptr, ...) @snprintf(ptr noundef %109, i64 noundef %111, ptr noundef @.str.13) #5
  br label %149

113:                                              ; preds = %3
  %114 = load ptr, ptr %5, align 8
  %115 = load i32, ptr %6, align 4
  %116 = sext i32 %115 to i64
  %117 = call i32 (ptr, i64, ptr, ...) @snprintf(ptr noundef %114, i64 noundef %116, ptr noundef @.str.14) #5
  br label %149

118:                                              ; preds = %3
  %119 = load ptr, ptr %5, align 8
  %120 = load i32, ptr %6, align 4
  %121 = sext i32 %120 to i64
  %122 = call i32 (ptr, i64, ptr, ...) @snprintf(ptr noundef %119, i64 noundef %121, ptr noundef @.str.15) #5
  br label %149

123:                                              ; preds = %3
  %124 = load ptr, ptr %5, align 8
  %125 = load i32, ptr %6, align 4
  %126 = sext i32 %125 to i64
  %127 = call i32 (ptr, i64, ptr, ...) @snprintf(ptr noundef %124, i64 noundef %126, ptr noundef @.str.16) #5
  br label %149

128:                                              ; preds = %3
  %129 = load ptr, ptr %5, align 8
  %130 = load i32, ptr %6, align 4
  %131 = sext i32 %130 to i64
  %132 = load ptr, ptr %4, align 8
  %133 = getelementptr inbounds %struct._YR_COMPILER, ptr %132, i32 0, i32 31
  %134 = getelementptr inbounds [256 x i8], ptr %133, i64 0, i64 0
  %135 = call i32 (ptr, i64, ptr, ...) @snprintf(ptr noundef %129, i64 noundef %131, ptr noundef @.str.17, ptr noundef %134) #5
  br label %149

136:                                              ; preds = %3, %3, %3, %3, %3
  %137 = load ptr, ptr %5, align 8
  %138 = load i32, ptr %6, align 4
  %139 = sext i32 %138 to i64
  %140 = load ptr, ptr %4, align 8
  %141 = getelementptr inbounds %struct._YR_COMPILER, ptr %140, i32 0, i32 31
  %142 = getelementptr inbounds [256 x i8], ptr %141, i64 0, i64 0
  %143 = call i32 (ptr, i64, ptr, ...) @snprintf(ptr noundef %137, i64 noundef %139, ptr noundef @.str.18, ptr noundef %142) #5
  br label %149

144:                                              ; preds = %3
  %145 = load ptr, ptr %5, align 8
  %146 = load i32, ptr %6, align 4
  %147 = sext i32 %146 to i64
  %148 = call i32 (ptr, i64, ptr, ...) @snprintf(ptr noundef %145, i64 noundef %147, ptr noundef @.str.19) #5
  br label %149

149:                                              ; preds = %144, %136, %128, %123, %118, %113, %108, %103, %95, %87, %79, %71, %63, %55, %47, %39, %31, %23, %15, %10, %3
  %150 = load ptr, ptr %5, align 8
  ret ptr %150
}