; Function Attrs: nofree nounwind uwtable
define noundef ptr @yr_compiler_get_error_message(ptr noundef %0, ptr noundef returned writeonly %1, i32 noundef %2) local_unnamed_addr #7 {
  %4 = getelementptr inbounds i8, ptr %0, i64 8
  %5 = load i32, ptr %4, align 8
  switch i32 %5, label %79 [
    i32 1, label %6
    i32 14, label %9
    i32 17, label %13
    i32 15, label %17
    i32 16, label %21
    i32 13, label %25
    i32 19, label %29
    i32 20, label %33
    i32 18, label %37
    i32 35, label %41
    i32 36, label %45
    i32 33, label %49
    i32 21, label %53
    i32 22, label %56
    i32 23, label %59
    i32 12, label %62
    i32 32, label %65
    i32 34, label %68
    i32 10, label %72
    i32 9, label %72
    i32 11, label %72
    i32 24, label %72
    i32 40, label %72
    i32 31, label %76
  ]

6:                                                ; preds = %3
  %7 = sext i32 %2 to i64
  %8 = tail call i32 (ptr, i64, ptr, ...) @snprintf(ptr noundef %1, i64 noundef %7, ptr noundef nonnull @.str) #10
  br label %79

9:                                                ; preds = %3
  %10 = sext i32 %2 to i64
  %11 = getelementptr inbounds i8, ptr %0, i64 692
  %12 = tail call i32 (ptr, i64, ptr, ...) @snprintf(ptr noundef %1, i64 noundef %10, ptr noundef nonnull @.str.1, ptr noundef nonnull %11) #10
  br label %79

13:                                               ; preds = %3
  %14 = sext i32 %2 to i64
  %15 = getelementptr inbounds i8, ptr %0, i64 692
  %16 = tail call i32 (ptr, i64, ptr, ...) @snprintf(ptr noundef %1, i64 noundef %14, ptr noundef nonnull @.str.2, ptr noundef nonnull %15) #10
  br label %79

17:                                               ; preds = %3
  %18 = sext i32 %2 to i64
  %19 = getelementptr inbounds i8, ptr %0, i64 692
  %20 = tail call i32 (ptr, i64, ptr, ...) @snprintf(ptr noundef %1, i64 noundef %18, ptr noundef nonnull @.str.3, ptr noundef nonnull %19) #10
  br label %79

21:                                               ; preds = %3
  %22 = sext i32 %2 to i64
  %23 = getelementptr inbounds i8, ptr %0, i64 692
  %24 = tail call i32 (ptr, i64, ptr, ...) @snprintf(ptr noundef %1, i64 noundef %22, ptr noundef nonnull @.str.4, ptr noundef nonnull %23) #10
  br label %79

25:                                               ; preds = %3
  %26 = sext i32 %2 to i64
  %27 = getelementptr inbounds i8, ptr %0, i64 692
  %28 = tail call i32 (ptr, i64, ptr, ...) @snprintf(ptr noundef %1, i64 noundef %26, ptr noundef nonnull @.str.5, ptr noundef nonnull %27) #10
  br label %79

29:                                               ; preds = %3
  %30 = sext i32 %2 to i64
  %31 = getelementptr inbounds i8, ptr %0, i64 692
  %32 = tail call i32 (ptr, i64, ptr, ...) @snprintf(ptr noundef %1, i64 noundef %30, ptr noundef nonnull @.str.6, ptr noundef nonnull %31) #10
  br label %79

33:                                               ; preds = %3
  %34 = sext i32 %2 to i64
  %35 = getelementptr inbounds i8, ptr %0, i64 692
  %36 = tail call i32 (ptr, i64, ptr, ...) @snprintf(ptr noundef %1, i64 noundef %34, ptr noundef nonnull @.str.7, ptr noundef nonnull %35) #10
  br label %79

37:                                               ; preds = %3
  %38 = sext i32 %2 to i64
  %39 = getelementptr inbounds i8, ptr %0, i64 692
  %40 = tail call i32 (ptr, i64, ptr, ...) @snprintf(ptr noundef %1, i64 noundef %38, ptr noundef nonnull @.str.8, ptr noundef nonnull %39) #10
  br label %79

41:                                               ; preds = %3
  %42 = sext i32 %2 to i64
  %43 = getelementptr inbounds i8, ptr %0, i64 692
  %44 = tail call i32 (ptr, i64, ptr, ...) @snprintf(ptr noundef %1, i64 noundef %42, ptr noundef nonnull @.str.9, ptr noundef nonnull %43) #10
  br label %79

45:                                               ; preds = %3
  %46 = sext i32 %2 to i64
  %47 = getelementptr inbounds i8, ptr %0, i64 692
  %48 = tail call i32 (ptr, i64, ptr, ...) @snprintf(ptr noundef %1, i64 noundef %46, ptr noundef nonnull @.str.10, ptr noundef nonnull %47) #10
  br label %79

49:                                               ; preds = %3
  %50 = sext i32 %2 to i64
  %51 = getelementptr inbounds i8, ptr %0, i64 692
  %52 = tail call i32 (ptr, i64, ptr, ...) @snprintf(ptr noundef %1, i64 noundef %50, ptr noundef nonnull @.str.11, ptr noundef nonnull %51) #10
  br label %79

53:                                               ; preds = %3
  %54 = sext i32 %2 to i64
  %55 = tail call i32 (ptr, i64, ptr, ...) @snprintf(ptr noundef %1, i64 noundef %54, ptr noundef nonnull @.str.12) #10
  br label %79

56:                                               ; preds = %3
  %57 = sext i32 %2 to i64
  %58 = tail call i32 (ptr, i64, ptr, ...) @snprintf(ptr noundef %1, i64 noundef %57, ptr noundef nonnull @.str.13) #10
  br label %79

59:                                               ; preds = %3
  %60 = sext i32 %2 to i64
  %61 = tail call i32 (ptr, i64, ptr, ...) @snprintf(ptr noundef %1, i64 noundef %60, ptr noundef nonnull @.str.14) #10
  br label %79

62:                                               ; preds = %3
  %63 = sext i32 %2 to i64
  %64 = tail call i32 (ptr, i64, ptr, ...) @snprintf(ptr noundef %1, i64 noundef %63, ptr noundef nonnull @.str.15) #10
  br label %79

65:                                               ; preds = %3
  %66 = sext i32 %2 to i64
  %67 = tail call i32 (ptr, i64, ptr, ...) @snprintf(ptr noundef %1, i64 noundef %66, ptr noundef nonnull @.str.16) #10
  br label %79

68:                                               ; preds = %3
  %69 = sext i32 %2 to i64
  %70 = getelementptr inbounds i8, ptr %0, i64 692
  %71 = tail call i32 (ptr, i64, ptr, ...) @snprintf(ptr noundef %1, i64 noundef %69, ptr noundef nonnull @.str.17, ptr noundef nonnull %70) #10
  br label %79

72:                                               ; preds = %3, %3, %3, %3, %3
  %73 = sext i32 %2 to i64
  %74 = getelementptr inbounds i8, ptr %0, i64 692
  %75 = tail call i32 (ptr, i64, ptr, ...) @snprintf(ptr noundef %1, i64 noundef %73, ptr noundef nonnull @.str.18, ptr noundef nonnull %74) #10
  br label %79

76:                                               ; preds = %3
  %77 = sext i32 %2 to i64
  %78 = tail call i32 (ptr, i64, ptr, ...) @snprintf(ptr noundef %1, i64 noundef %77, ptr noundef nonnull @.str.19) #10
  br label %79

79:                                               ; preds = %76, %72, %68, %65, %62, %59, %56, %53, %49, %45, %41, %37, %33, %29, %25, %21, %17, %13, %9, %6, %3
  ret ptr %1
}